; ModuleID = '30/616.c'
source_filename = "30/616.c"
target datalayout = "e-m:e-p270:32:32-p271:32:32-p272:64:64-i64:64-f80:128-n8:16:32:64-S128"
target triple = "x86_64-pc-linux-gnu"

@.str = private unnamed_addr constant [3 x i8] c"%d\00", align 1

; Function Attrs: noinline nounwind uwtable
define dso_local i32 @main() #0 {
  %1 = alloca i32, align 4
  %2 = alloca i32, align 4
  %3 = alloca i32, align 4
  %4 = alloca i32, align 4
  store i32 0, i32* %1, align 4
  store i32 0, i32* %3, align 4
  store i32 0, i32* %4, align 4
  %5 = call i32 (i8*, ...) @__isoc99_scanf(i8* getelementptr inbounds ([3 x i8], [3 x i8]* @.str, i64 0, i64 0), i32* %2)
  br label %6

6:                                                ; preds = %44, %0
  %7 = load i32, i32* %3, align 4
  %8 = load i32, i32* %2, align 4
  %9 = icmp sle i32 %7, %8
  br i1 %9, label %10, label %47

10:                                               ; preds = %6
  %11 = load i32, i32* %3, align 4
  %12 = srem i32 %11, 7
  %13 = icmp eq i32 %12, 0
  br i1 %13, label %14, label %16

14:                                               ; preds = %10
  %15 = load i32, i32* %4, align 4
  store i32 %15, i32* %4, align 4
  br label %44

16:                                               ; preds = %10
  %17 = load i32, i32* %3, align 4
  %18 = icmp sle i32 %17, 10
  br i1 %18, label %19, label %25

19:                                               ; preds = %16
  %20 = load i32, i32* %4, align 4
  %21 = load i32, i32* %3, align 4
  %22 = load i32, i32* %3, align 4
  %23 = mul nsw i32 %21, %22
  %24 = add nsw i32 %20, %23
  store i32 %24, i32* %4, align 4
  br label %43

25:                                               ; preds = %16
  %26 = load i32, i32* %3, align 4
  %27 = srem i32 %26, 10
  %28 = icmp ne i32 %27, 7
  br i1 %28, label %29, label %42

29:                                               ; preds = %25
  %30 = load i32, i32* %3, align 4
  %31 = load i32, i32* %3, align 4
  %32 = srem i32 %31, 10
  %33 = sub nsw i32 %30, %32
  %34 = sdiv i32 %33, 10
  %35 = icmp ne i32 %34, 7
  br i1 %35, label %36, label %42

36:                                               ; preds = %29
  %37 = load i32, i32* %4, align 4
  %38 = load i32, i32* %3, align 4
  %39 = load i32, i32* %3, align 4
  %40 = mul nsw i32 %38, %39
  %41 = add nsw i32 %37, %40
  store i32 %41, i32* %4, align 4
  br label %42

42:                                               ; preds = %36, %29, %25
  br label %43

43:                                               ; preds = %42, %19
  br label %44

44:                                               ; preds = %43, %14
  %45 = load i32, i32* %3, align 4
  %46 = add nsw i32 %45, 1
  store i32 %46, i32* %3, align 4
  br label %6

47:                                               ; preds = %6
  %48 = load i32, i32* %4, align 4
  %49 = call i32 (i8*, ...) @printf(i8* getelementptr inbounds ([3 x i8], [3 x i8]* @.str, i64 0, i64 0), i32 %48)
  ret i32 0
}

declare dso_local i32 @__isoc99_scanf(i8*, ...) #1

declare dso_local i32 @printf(i8*, ...) #1


!llvm.module.flags = !{!0}
!llvm.ident = !{!1}

!0 = !{i32 1, !"wchar_size", i32 4}
!1 = !{!"clang version 10.0.0-4ubuntu1 "}
